Certificate:
    Data:
        Version: 3 (0x2)
        Serial Number: 1048578 (0x100002)
    Signature Algorithm: sha256WithRSAEncryption
        Issuer: O=ULHT, OU=ECATI/emailAddress=info@ulusofona.pt, L=Lisboa, ST=Estremadura, C=PT, CN=Certificate Authority
        Validity
            Not Before: May 18 11:05:01 2019 GMT
            Not After : May 17 11:05:01 2020 GMT
        Subject: C=PT, ST=Estremadura, O=ULHT, OU=ECATI, CN=Client
        Subject Public Key Info:
            Public Key Algorithm: rsaEncryption
                Public-Key: (2048 bit)
                Modulus:
                    00:c4:f7:0b:05:46:6a:53:e0:4d:a4:27:32:c6:1e:
                    15:b4:39:3d:57:da:70:5e:aa:66:b8:26:b4:4d:30:
                    a3:5b:1b:6b:38:94:01:49:c0:a1:ba:75:81:0c:41:
                    ef:c6:82:43:56:0c:1d:0f:e5:6e:a8:3d:13:4f:df:
                    d3:8d:12:b5:fd:4d:e1:1b:d3:f9:9f:f1:42:a4:8a:
                    93:fe:ea:24:08:f4:bd:3d:4a:b1:6d:ed:61:c6:a9:
                    88:3f:0c:5d:25:59:64:eb:e0:37:68:fd:68:1b:27:
                    68:6b:27:e0:8f:d0:b6:d2:0d:5a:69:d2:62:c0:26:
                    a2:0b:75:9f:36:b4:2c:63:e3:8b:bd:76:70:56:82:
                    eb:e5:7a:8e:1b:19:d8:e1:cc:84:e8:94:2d:4f:ed:
                    08:d3:01:24:d5:82:c7:02:4d:48:85:50:7e:65:bf:
                    07:c4:fe:bc:de:4b:ee:9c:71:47:13:3c:27:c6:67:
                    d9:c9:5a:ff:9e:9a:8e:00:c2:36:ba:bc:23:47:74:
                    b6:4b:ec:7f:98:e5:94:54:25:68:29:3c:71:3c:76:
                    4f:19:51:65:38:6c:f6:69:43:aa:9f:f9:91:3c:fc:
                    65:0b:d9:82:16:25:33:bb:6f:27:af:66:51:f3:f7:
                    aa:e4:e4:59:f8:c2:ef:79:54:65:b2:8c:51:09:41:
                    f0:2f
                Exponent: 65537 (0x10001)
        X509v3 extensions:
            X509v3 Basic Constraints: 
                CA:FALSE
            X509v3 Subject Key Identifier: 
                31:01:94:8D:1C:B0:D6:0D:DF:B5:8E:91:2E:CD:DC:EA:8E:D3:E7:5A
            X509v3 Key Usage: 
                Digital Signature, Non Repudiation, Key Encipherment, Data Encipherment, Key Agreement
            Netscape Cert Type: 
                SSL Client, SSL Server, S/MIME, Object Signing
    Signature Algorithm: sha256WithRSAEncryption
         a7:2d:e1:3f:8f:72:c3:b1:39:07:f9:03:5f:47:6c:80:42:af:
         0c:da:5a:ba:96:63:a6:8f:63:d5:29:0d:ce:22:d6:b9:43:5a:
         2b:b6:b0:9f:1a:fc:13:76:99:72:b3:91:ab:67:cf:ff:95:7d:
         a9:af:2d:dd:2a:39:a0:8a:3f:88:dc:5c:23:59:03:18:02:5b:
         a9:36:02:ae:4d:20:01:b6:e8:dd:a3:0d:7b:6c:1d:b2:cc:94:
         a0:eb:3a:3c:0a:09:dd:a1:77:62:6f:37:27:c8:de:8c:8c:82:
         c4:cc:d5:81:40:8d:f4:45:ea:b2:98:fb:d4:a4:65:a4:6e:b7:
         3f:a4:4e:ac:19:2c:3a:ee:3f:e8:85:41:c9:41:85:88:bf:fc:
         79:96:70:23:d6:e6:56:e4:b6:40:b1:05:14:2d:f6:39:2e:0c:
         15:4c:a5:25:41:81:cd:33:99:d9:6f:6c:d0:e3:2f:0a:70:a1:
         d0:dd:50:e7:9a:54:bd:3f:9f:00:03:1f:eb:81:7d:4c:74:d0:
         4c:64:7d:8d:fe:73:ac:85:e3:f9:65:c1:fd:e2:7c:3f:76:3f:
         1b:c0:fd:ae:56:43:39:ae:01:f8:9e:d1:48:5c:f8:46:7b:9f:
         87:74:8b:47:f6:5f:1a:f0:fa:df:bc:40:30:bf:96:2b:13:a9:
         2b:b1:d0:f2
-----BEGIN CERTIFICATE-----
MIIDsjCCApqgAwIBAgIDEAACMA0GCSqGSIb3DQEBCwUAMIGVMQ0wCwYDVQQKEwRV
TEhUMQ4wDAYDVQQLEwVFQ0FUSTEgMB4GCSqGSIb3DQEJARYRaW5mb0B1bHVzb2Zv
bmEucHQxDzANBgNVBAcTBkxpc2JvYTEUMBIGA1UECBMLRXN0cmVtYWR1cmExCzAJ
BgNVBAYTAlBUMR4wHAYDVQQDExVDZXJ0aWZpY2F0ZSBBdXRob3JpdHkwHhcNMTkw
NTE4MTEwNTAxWhcNMjAwNTE3MTEwNTAxWjBTMQswCQYDVQQGEwJQVDEUMBIGA1UE
CBMLRXN0cmVtYWR1cmExDTALBgNVBAoTBFVMSFQxDjAMBgNVBAsTBUVDQVRJMQ8w
DQYDVQQDEwZDbGllbnQwggEiMA0GCSqGSIb3DQEBAQUAA4IBDwAwggEKAoIBAQDE
9wsFRmpT4E2kJzLGHhW0OT1X2nBeqma4JrRNMKNbG2s4lAFJwKG6dYEMQe/GgkNW
DB0P5W6oPRNP39ONErX9TeEb0/mf8UKkipP+6iQI9L09SrFt7WHGqYg/DF0lWWTr
4Ddo/WgbJ2hrJ+CP0LbSDVpp0mLAJqILdZ82tCxj44u9dnBWguvleo4bGdjhzITo
lC1P7QjTASTVgscCTUiFUH5lvwfE/rzeS+6ccUcTPCfGZ9nJWv+emo4Awja6vCNH
dLZL7H+Y5ZRUJWgpPHE8dk8ZUWU4bPZpQ6qf+ZE8/GUL2YIWJTO7byevZlHz96rk
5Fn4wu95VGWyjFEJQfAvAgMBAAGjTDBKMAkGA1UdEwQCMAAwHQYDVR0OBBYEFDEB
lI0csNYN37WOkS7N3OqO0+daMAsGA1UdDwQEAwID+DARBglghkgBhvhCAQEEBAMC
BPAwDQYJKoZIhvcNAQELBQADggEBAKct4T+PcsOxOQf5A19HbIBCrwzaWrqWY6aP
Y9UpDc4i1rlDWiu2sJ8a/BN2mXKzkatnz/+VfamvLd0qOaCKP4jcXCNZAxgCW6k2
Aq5NIAG26N2jDXtsHbLMlKDrOjwKCd2hd2JvNyfI3oyMgsTM1YFAjfRF6rKY+9Sk
ZaRutz+kTqwZLDruP+iFQclBhYi//HmWcCPW5lbktkCxBRQt9jkuDBVMpSVBgc0z
mdlvbNDjLwpwodDdUOeaVL0/nwADH+uBfUx00ExkfY3+c6yF4/llwf3ifD92PxvA
/a5WQzmuAfie0Uhc+EZ7n4d0i0f2Xxrw+t+8QDC/lisTqSux0PI=
-----END CERTIFICATE-----
