Certificate:
    Data:
        Version: 3 (0x2)
        Serial Number: 1048577 (0x100001)
    Signature Algorithm: sha256WithRSAEncryption
        Issuer: O=ULHT, OU=ECATI/emailAddress=info@ulusofona.pt, L=Lisboa, ST=Estremadura, C=PT, CN=Certificate Authority
        Validity
            Not Before: May 18 11:00:36 2019 GMT
            Not After : May 17 11:00:36 2020 GMT
        Subject: C=PT, ST=Estremadura, O=ULHT, OU=ECATI, CN=Server
        Subject Public Key Info:
            Public Key Algorithm: rsaEncryption
                Public-Key: (2048 bit)
                Modulus:
                    00:c1:67:1d:79:e0:c4:fd:44:89:87:02:7a:c9:9f:
                    cf:c8:5d:41:61:7a:dc:87:6b:9a:af:5b:00:de:3b:
                    42:2f:67:6f:3c:f6:2f:fc:3b:1e:43:a6:40:7b:26:
                    26:f7:5c:09:a1:2c:0c:23:d8:5f:63:3f:da:46:67:
                    cd:25:77:82:ff:85:e9:64:7b:77:82:f7:c5:2e:68:
                    20:cc:2e:ac:7b:16:8a:8f:c5:ea:a5:bc:2a:b9:88:
                    4e:ed:43:35:f3:f9:d2:5a:7a:ef:12:b6:d7:a0:b1:
                    34:6a:ce:e2:4f:8e:32:72:86:23:53:41:d9:b3:5b:
                    1c:da:1c:5d:a9:80:67:f1:06:15:86:20:5c:45:a9:
                    3a:ba:ab:7e:2c:4e:5c:fe:6b:fc:11:0b:7f:6d:e7:
                    cc:bc:fa:1c:ef:24:2f:64:d5:d0:ff:46:c2:bc:f4:
                    a1:b6:3e:bd:91:77:62:ce:43:99:dd:c4:65:f9:4e:
                    19:8d:38:c1:2b:b5:d1:d3:11:96:62:c8:73:61:50:
                    6a:bc:b7:27:6b:9c:c0:13:00:db:e3:91:de:8f:ca:
                    2d:55:45:18:22:6f:04:8d:23:e8:90:89:a9:de:95:
                    34:44:42:90:3f:d5:ea:47:cc:23:64:f6:55:cb:c9:
                    b9:e1:51:b9:d3:b7:1c:50:0a:6b:b8:f3:03:cf:94:
                    f0:9d
                Exponent: 65537 (0x10001)
        X509v3 extensions:
            X509v3 Basic Constraints: 
                CA:FALSE
            X509v3 Subject Key Identifier: 
                18:A2:A3:CB:1C:6B:8E:F6:D3:72:C5:5F:5E:0A:A6:02:EF:9D:29:DF
            X509v3 Key Usage: 
                Digital Signature, Non Repudiation, Key Encipherment, Data Encipherment, Key Agreement
            Netscape Cert Type: 
                SSL Client, SSL Server, S/MIME, Object Signing
    Signature Algorithm: sha256WithRSAEncryption
         82:36:8c:30:e8:f8:da:88:c7:00:03:c4:4a:b9:df:98:9b:e9:
         3c:ae:d6:f6:a9:5f:44:fa:be:b3:53:d2:eb:af:66:3b:d3:a0:
         e7:a8:ca:d9:00:65:ca:76:12:f8:f9:10:6a:4d:39:a5:8d:c5:
         6b:93:0b:31:4b:5b:00:90:28:4c:a2:fb:47:40:32:10:a0:02:
         92:5b:87:46:87:3b:0e:fd:fe:6d:e5:94:70:0c:01:69:68:d3:
         06:2f:cf:65:df:a9:06:f7:38:ed:14:73:e5:c0:09:fa:a3:80:
         d6:6d:e6:a1:91:e5:1c:f0:65:70:66:79:f0:b1:9f:0c:6a:2c:
         e0:ce:f6:61:6d:b1:e1:d2:3c:82:54:3e:c5:49:67:fa:59:9c:
         ee:bd:06:a2:2f:9d:6e:71:37:a2:21:0f:32:f2:ee:c8:31:35:
         83:3d:bd:c9:a0:5a:e8:09:d9:e6:11:77:46:ab:9c:dc:d1:6a:
         a0:99:9f:f5:c3:93:19:7b:c3:c5:e0:35:d2:e6:97:9b:7b:44:
         79:a3:f6:f8:80:73:5b:30:50:4a:cf:e1:0e:da:3a:c8:ae:26:
         74:69:a9:79:a8:d0:c3:ef:e7:69:29:53:74:ac:51:98:40:b3:
         80:bd:42:28:f5:8a:c4:3d:72:9a:99:58:6f:e3:ba:d0:16:9f:
         03:ab:57:86
-----BEGIN CERTIFICATE-----
MIIDsjCCApqgAwIBAgIDEAABMA0GCSqGSIb3DQEBCwUAMIGVMQ0wCwYDVQQKEwRV
TEhUMQ4wDAYDVQQLEwVFQ0FUSTEgMB4GCSqGSIb3DQEJARYRaW5mb0B1bHVzb2Zv
bmEucHQxDzANBgNVBAcTBkxpc2JvYTEUMBIGA1UECBMLRXN0cmVtYWR1cmExCzAJ
BgNVBAYTAlBUMR4wHAYDVQQDExVDZXJ0aWZpY2F0ZSBBdXRob3JpdHkwHhcNMTkw
NTE4MTEwMDM2WhcNMjAwNTE3MTEwMDM2WjBTMQswCQYDVQQGEwJQVDEUMBIGA1UE
CBMLRXN0cmVtYWR1cmExDTALBgNVBAoTBFVMSFQxDjAMBgNVBAsTBUVDQVRJMQ8w
DQYDVQQDEwZTZXJ2ZXIwggEiMA0GCSqGSIb3DQEBAQUAA4IBDwAwggEKAoIBAQDB
Zx154MT9RImHAnrJn8/IXUFhetyHa5qvWwDeO0IvZ2889i/8Ox5DpkB7Jib3XAmh
LAwj2F9jP9pGZ80ld4L/helke3eC98UuaCDMLqx7FoqPxeqlvCq5iE7tQzXz+dJa
eu8SttegsTRqzuJPjjJyhiNTQdmzWxzaHF2pgGfxBhWGIFxFqTq6q34sTlz+a/wR
C39t58y8+hzvJC9k1dD/RsK89KG2Pr2Rd2LOQ5ndxGX5ThmNOMErtdHTEZZiyHNh
UGq8tydrnMATANvjkd6Pyi1VRRgibwSNI+iQianelTREQpA/1epHzCNk9lXLybnh
UbnTtxxQCmu48wPPlPCdAgMBAAGjTDBKMAkGA1UdEwQCMAAwHQYDVR0OBBYEFBii
o8sca47203LFX14KpgLvnSnfMAsGA1UdDwQEAwID+DARBglghkgBhvhCAQEEBAMC
BPAwDQYJKoZIhvcNAQELBQADggEBAII2jDDo+NqIxwADxEq535ib6Tyu1vapX0T6
vrNT0uuvZjvToOeoytkAZcp2Evj5EGpNOaWNxWuTCzFLWwCQKEyi+0dAMhCgApJb
h0aHOw79/m3llHAMAWlo0wYvz2XfqQb3OO0Uc+XACfqjgNZt5qGR5RzwZXBmefCx
nwxqLODO9mFtseHSPIJUPsVJZ/pZnO69BqIvnW5xN6IhDzLy7sgxNYM9vcmgWugJ
2eYRd0arnNzRaqCZn/XDkxl7w8XgNdLml5t7RHmj9viAc1swUErP4Q7aOsiuJnRp
qXmo0MPv52kpU3SsUZhAs4C9Qij1isQ9cpqZWG/jutAWnwOrV4Y=
-----END CERTIFICATE-----
